(lp0
(lp1
I100012
aI517
aS'Navje'
p2
a(F14.509092000000132
F46.05970550000007
tp3
aa(lp4
I100021
aI172
aS'Razstavi\xc5\xa1\xc4\x8de \xe2\x86\x92'
p5
a(F14.507176800000133
F46.06070680000007
tp6
aa(lp7
I100022
aI173
aS'Razstavi\xc5\xa1\xc4\x8de'
p8
a(F14.507654200000133
F46.06113480000007
tp9
aa(lp10
I101011
aI348
aS'Hranilni\xc5\xa1ka \xe2\x86\x92'
p11
a(F14.507320400000145
F46.06380650000008
tp12
aa(lp13
I101012
aI349
aS'Hranilni\xc5\xa1ka'
p14
a(F14.507486600000146
F46.06385910000007
tp15
aa(lp16
I101021
aI350
aS'Parmova \xe2\x86\x92'
p17
a(F14.504404900000146
F46.063706000000074
tp18
aa(lp19
I101022
aI351
aS'Parmova'
p20
a(F14.504573900000146
F46.06383260000008
tp21
aa(lp22
I101031
aI198
aS'Be\xc5\xbeigrad \xe2\x86\x92'
p23
a(F14.511776800000131
F46.06371990000007
tp24
aa(lp25
I101032
aI199
aS'Be\xc5\xbeigrad'
p26
a(F14.51035930000013
F46.063354700000076
tp27
aa(lp28
I101034
aI428
aS'Kr\xc5\xbei\xc4\x8deva'
p29
a(F14.513502900000146
F46.064779900000076
tp30
aa(lp31
I101051
aI170
aS'Astra \xe2\x86\x92'
p32
a(F14.508806500000144
F46.06492120000008
tp33
aa(lp34
I101052
aI171
aS'Astra'
p35
a(F14.509055800000146
F46.065014400000074
tp36
aa(lp37
I101061
aI352
aS'Bratov \xc5\xbdidan \xe2\x86\x92'
p38
a(F14.502940400000146
F46.065453600000076
tp39
aa(lp40
I101062
aI353
aS'Bratov \xc5\xbdidan'
p41
a(F14.503071800000145
F46.065431100000076
tp42
aa(lp43
I102011
aI460
aS'Samova'
p44
a(F14.505311700000146
F46.067092700000075
tp45
aa(lp46
I102012
aI461
aS'Samova \xe2\x86\x92'
p47
a(F14.504779200000147
F46.06674470000008
tp48
aa(lp49
I102021
aI410
aS'Topni\xc5\xa1ka \xe2\x86\x92'
p50
a(F14.514873700000145
F46.06717640000007
tp51
aa(lp52
I102022
aI411
aS'Topni\xc5\xa1ka'
p53
a(F14.514664500000146
F46.067124300000074
tp54
aa(lp55
I102031
aI426
aS'Gasilska brigada \xe2\x86\x92'
p56
a(F14.516713400000137
F46.06851010000019
tp57
aa(lp58
I102032
aI427
aS'Gasilska brigada'
p59
a(F14.516464000000138
F46.06808200000019
tp60
aa(lp61
I102041
aI168
aS'Stadion \xe2\x86\x92'
p62
a(F14.510171200000146
F46.069345200000086
tp63
aa(lp64
I102042
aI169
aS'Stadion'
p65
a(F14.510420700000145
F46.06944940000009
tp66
aa(lp67
I102051
aI354
aS'Podmil\xc5\xa1\xc4\x8dakova \xe2\x86\x92'
p68
a(F14.503541500000136
F46.06978550000018
tp69
aa(lp70
I102052
aI355
aS'Podmil\xc5\xa1\xc4\x8dakova'
p71
a(F14.503723900000136
F46.07025250000018
tp72
aa(lp73
I102061
aI400
aS'Mostovna \xe2\x86\x92'
p74
a(F14.499362500000135
F46.07363370000018
tp75
aa(lp76
I102062
aI401
aS'Mostovna'
p77
a(F14.499692100000136
F46.07431350000018
tp78
aa(lp79
I102071
aI356
aS'Vodovodna \xe2\x86\x92'
p80
a(F14.504544500000137
F46.07472780000018
tp81
aa(lp82
I102072
aI357
aS'Vodovodna'
p83
a(F14.505008600000137
F46.07534560000018
tp84
aa(lp85
I102081
aI166
aS'Mercator \xe2\x86\x92'
p86
a(F14.511223400000144
F46.07429490000009
tp87
aa(lp88
I102082
aI167
aS'Mercator'
p89
a(F14.511592800000145
F46.074604600000086
tp90
aa(lp91
I102091
aI424
aS'Kardeljeva plo\xc5\xa1\xc4\x8dad \xe2\x86\x92'
p92
a(F14.519127300000138
F46.07189130000019
tp93
aa(lp94
I102092
aI425
aS'Kardeljeva plo\xc5\xa1\xc4\x8dad'
p95
a(F14.519307000000138
F46.07253320000019
tp96
aa(lp97
I103011
aI398
aS'Toplarna \xe2\x86\x92'
p98
a(F14.500025000000136
F46.07576790000018
tp99
aa(lp100
I103012
aI399
aS'Toplarna'
p101
a(F14.500290600000136
F46.076281400000184
tp102
aa(lp103
I103021
aI358
aS'Brinje \xe2\x86\x92'
p104
a(F14.505622500000136
F46.07679750000019
tp105
aa(lp106
I103022
aI359
aS'Brinje'
p107
a(F14.506252800000135
F46.077895300000186
tp108
aa(lp109
I103031
aI164
aS'AMZS \xe2\x86\x92'
p110
a(F14.512078400000146
F46.07772230000009
tp111
aa(lp112
I103032
aI165
aS'AMZS'
p113
a(F14.512215200000144
F46.07743200000009
tp114
aa(lp115
I103041
aI422
aS'Puhova \xe2\x86\x92'
p116
a(F14.519494700000138
F46.076507700000185
tp117
aa(lp118
I103042
aI423
aS'Puhova'
p119
a(F14.519666400000139
F46.07717750000018
tp120
aa(lp121
I103051
aI397
aS'Tovarna Lek \xe2\x86\x92'
p122
a(F14.501036300000136
F46.079440800000185
tp123
aa(lp124
I103061
aI360
aS'Pohorskega bataljona \xe2\x86\x92'
p125
a(F14.507344700000136
F46.08229290000018
tp126
aa(lp127
I103062
aI361
aS'Pohorskega bataljona'
p128
a(F14.507409200000136
F46.08199890000019
tp129
aa(lp130
I103071
aI162
aS'Smelt \xe2\x86\x92'
p131
a(F14.513164900000145
F46.08249450000009
tp132
aa(lp133
I103072
aI163
aS'Smelt'
p134
a(F14.513293500000145
F46.08203870000008
tp135
aa(lp136
I103081
aI421
aS'Nove Sto\xc5\xbeice \xe2\x86\x92'
p137
a(F14.519808600000138
F46.08188280000019
tp138
aa(lp139
I103091
aI362
aS'Gorjan\xc4\x8deva \xe2\x86\x92'
p140
a(F14.507588500000136
F46.08516800000019
tp141
aa(lp142
I103092
aI363
aS'Gorjan\xc4\x8deva'
p143
a(F14.507792600000137
F46.086103000000186
tp144
aa(lp145
I103101
aI159
aS'Sto\xc5\xbeice \xe2\x86\x92'
p146
a(F14.513856600000146
F46.08598640000009
tp147
aa(lp148
I103102
aI160
aS'Sto\xc5\xbeice'
p149
a(F14.514071200000146
F46.08604780000009
tp150
aa(lp151
I103111
aI364
aS'7. septembra \xe2\x86\x92'
p152
a(F14.508629600000138
F46.08997040000019
tp153
aa(lp154
I103112
aI365
aS'7. septembra'
p155
a(F14.508834800000136
F46.089861600000184
tp156
aa(lp157
I103121
aI366
aS'\xc4\x8cerinova \xe2\x86\x92'
p158
a(F14.512226300000137
F46.09029970000019
tp159
aa(lp160
I103122
aI367
aS'\xc4\x8cerinova'
p161
a(F14.512341700000135
F46.090193600000184
tp162
aa(lp163
I103131
aI157
aS'Ruski car \xe2\x86\x92'
p164
a(F14.513811100000146
F46.09021290000009
tp165
aa(lp166
I103132
aI158
aS'Ruski car'
p167
a(F14.513942600000144
F46.09076910000009
tp168
aa(lp169
I103161
aI687
aS'Maroltova \xe2\x86\x92'
p170
a(F14.519789900000138
F46.079884700000186
tp171
aa(lp172
I103162
aI686
aS'Maroltova'
p173
a(F14.519835400000138
F46.07919250000018
tp174
aa(lp175
I103173
aI689
aS'Center Sto\xc5\xbeice\xe2\x80\x90 smer Titova \xe2\x86\x92'
p176
a(F14.525198500000139
F46.079093000000185
tp177
aa(lp178
I103182
aI690
aS'Titova'
p179
a(F14.525081700000138
F46.07640350000018
tp180
aa(lp181
I103191
aI692
aS'Bo\xc5\xbei\xc4\x8deva \xe2\x86\x92'
p182
a(F14.520433600000139
F46.07575190000018
tp183
aa(lp184
I103192
aI693
aS'Bo\xc5\xbei\xc4\x8deva'
p185
a(F14.520417600000139
F46.07566820000018
tp186
aa(lp187
I104011
aI370
aS'Savlje \xe2\x86\x92'
p188
a(F14.503392600000137
F46.09519860000019
tp189
aa(lp190
I104021
aI368
aS'Kali\xc5\xa1nikov trg \xe2\x86\x92'
p191
a(F14.510633800000136
F46.09373220000019
tp192
aa(lp193
I104022
aI369
aS'Kali\xc5\xa1nikov trg'
p194
a(F14.511258100000136
F46.09348980000019
tp195
aa(lp196
I104031
aI155
aS'Je\xc5\xbeica \xe2\x86\x92'
p197
a(F14.517037800000145
F46.09748950000009
tp198
aa(lp199
I104032
aI156
aS'Je\xc5\xbeica'
p200
a(F14.516772300000145
F46.09612050000009
tp201
aa(lp202
I104033
aI234
aS'Je\xc5\xbeica \xe2\x86\x92'
p203
a(F14.516874100000145
F46.097392700000086
tp204
aa(lp205
I104051
aI153
aS'Sava \xe2\x86\x92'
p206
a(F14.521884700000145
F46.10088000000009
tp207
aa(lp208
I104052
aI154
aS'Sava'
p209
a(F14.521812000000144
F46.100798200000085
tp210
aa(lp211
I104054
aI544
aS'Sava'
p212
a(F14.521262400000145
F46.10067540000009
tp213
aa(lp214
I104061
aI438
aS'Elma \xe2\x86\x92'
p215
a(F14.526591900000001
F46.09876549999989
tp216
aa(lp217
I104062
aI439
aS'Elma'
p218
a(F14.527345500000001
F46.098399199999896
tp219
aa(lp220
I104071
aI436
aS'\xc5\xa0landrova \xe2\x86\x92'
p221
a(F14.5360521
F46.097935999999905
tp222
aa(lp223
I104072
aI437
aS'\xc5\xa0landrova'
p224
a(F14.5358831
F46.0978372999999
tp225
aa(lp226
I104081
aI434
aS'Obrtna cona \xe2\x86\x92'
p227
a(F14.542146099999998
F46.097740799999904
tp228
aa(lp229
I104082
aI435
aS'Obrtna cona'
p230
a(F14.5432699
F46.0973538999999
tp231
aa(lp232
I104091
aI432
aS'Cesta na Brod \xe2\x86\x92'
p233
a(F14.546190699999999
F46.09655599999991
tp234
aa(lp235
I104092
aI433
aS'Cesta na Brod'
p236
a(F14.546815800000001
F46.0961874999999
tp237
aa(lp238
I104101
aI151
aS'Kolodvor \xc4\x8crnu\xc4\x8de \xe2\x86\x92'
p239
a(F14.526200400000146
F46.101499300000086
tp240
aa(lp241
I104102
aI152
aS'Kolodvor \xc4\x8crnu\xc4\x8de'
p242
a(F14.524955800000146
F46.10116270000009
tp243
aa(lp244
I104111
aI149
aS'Rogovilc \xe2\x86\x92'
p245
a(F14.529711100000146
F46.10223580000009
tp246
aa(lp247
I104112
aI150
aS'Rogovilc'
p248
a(F14.531390200000144
F46.10264310000009
tp249
aa(lp250
I104113
aI476
aS'Primo\xc5\xbei\xc4\x8deva'
p251
a(F14.530408300000145
F46.102926800000084
tp252
aa(lp253
I104121
aI477
aS'Polan\xc5\xa1kova \xe2\x86\x92'
p254
a(F14.525760000000146
F46.10600090000008
tp255
aa(lp256
I104122
aI478
aS'Polan\xc5\xa1kova'
p257
a(F14.525647700000146
F46.106399800000084
tp258
aa(lp259
I104131
aI479
aS'Pot v Smre\xc4\x8dje \xe2\x86\x92'
p260
a(F14.527683100000147
F46.109253300000084
tp261
aa(lp262
I104132
aI480
aS'Pot v Smre\xc4\x8dje'
p263
a(F14.528434100000146
F46.10927370000009
tp264
aa(lp265
I104141
aI481
aS'Pot v Hrastovec \xe2\x86\x92'
p266
a(F14.532208000000146
F46.108338400000086
tp267
aa(lp268
I104142
aI482
aS'Pot v Hrastovec'
p269
a(F14.532819500000146
F46.107540600000085
tp270
aa(lp271
I104151
aI483
aS'O\xc5\xa0 Maksa Pe\xc4\x8darja \xe2\x86\x92'
p272
a(F14.534560600000146
F46.105494000000085
tp273
aa(lp274
I104152
aI484
aS'O\xc5\xa0 Maksa Pe\xc4\x8darja'
p275
a(F14.534592800000144
F46.10504030000009
tp276
aa(lp277
I104161
aI148
aS'\xc4\x8crnu\xc4\x8de \xe2\x86\x92'
p278
a(F14.536325500000146
F46.10430760000009
tp279
aa(lp280
I104171
aI441
aS'Zasavska \xe2\x86\x92'
p281
a(F14.5456677
F46.1039673999999
tp282
aa(lp283
I104172
aI442
aS'Zasavska'
p284
a(F14.546839799999999
F46.1034038999999
tp285
aa(lp286
I104181
aI443
aS'Je\xc5\xbea \xe2\x86\x92'
p287
a(F14.5533334
F46.100537999999894
tp288
aa(lp289
I104182
aI444
aS'Je\xc5\xbea'
p290
a(F14.5538003
F46.1001492999999
tp291
aa(lp292
I104191
aI387
aS'\xc5\xa0martno \xe2\x86\x92'
p293
a(F14.478624000000128
F46.123815900000054
tp294
aa(lp295
I104192
aI388
aS'\xc5\xa0martno'
p296
a(F14.476806700000127
F46.123304700000055
tp297
aa(lp298
I104201
aI490
aS'Zg. Gameljne \xe2\x86\x92'
p299
a(F14.487925900000127
F46.126451100000054
tp300
aa(lp301
I104202
aI389
aS'Zg. Gameljne'
p302
a(F14.487105100000127
F46.12592870000006
tp303
aa(lp304
I104211
aI390
aS'Ra\xc5\xa1ica \xe2\x86\x92'
p305
a(F14.492810200000127
F46.127107200000054
tp306
aa(lp307
I104212
aI391
aS'Ra\xc5\xa1ica'
p308
a(F14.493660400000127
F46.127008700000054
tp309
aa(lp310
I104221
aI392
aS'Gameljne \xe2\x86\x92'
p311
a(F14.497106400000128
F46.12687580000006
tp312
aa(lp313
I201011
aI486
aS'\xc5\xbdelezna \xe2\x86\x92'
p314
a(F14.513344600000131
F46.06115860000007
tp315
aa(lp316
I202011
aI52
aS'Viadukt \xe2\x86\x92'
p317
a(F14.52065350000013
F46.059424300000096
tp318
aa(lp319
I202012
aI53
aS'Viadukt'
p320
a(F14.52089260000013
F46.059578700000095
tp321
aa(lp322
I202021
aI200
aS'Prekmurska \xe2\x86\x92'
p323
a(F14.515968200000145
F46.064561600000076
tp324
aa(lp325
I202022
aI201
aS'Prekmurska'
p326
a(F14.517164000000145
F46.064718900000074
tp327
aa(lp328
I202041
aI50
aS'Savsko naselje \xe2\x86\x92'
p329
a(F14.52423200000013
F46.062278300000095
tp330
aa(lp331
I202042
aI51
aS'Savsko naselje'
p332
a(F14.52466250000013
F46.062693000000095
tp333
aa(lp334
I202043
aI293
aS'Sredi\xc5\xa1ka \xe2\x86\x92'
p335
a(F14.524964200000129
F46.06261790000009
tp336
aa(lp337
I202044
aI294
aS'Sredi\xc5\xa1ka'
p338
a(F14.52590700000013
F46.062968400000095
tp339
aa(lp340
I202051
aI45
aS'Zelena jama \xe2\x86\x92'
p341
a(F14.529244200000125
F46.06360260000009
tp342
aa(lp343
I202061
aI48
aS'\xc5\xbdale \xe2\x86\x92'
p344
a(F14.527325900000129
F46.06693240000009
tp345
aa(lp346
I202062
aI49
aS'\xc5\xbdale'
p347
a(F14.527478800000129
F46.06687290000009
tp348
aa(lp349
I202082
aI545
aS'Flaj\xc5\xa1manova'
p350
a(F14.529025000000125
F46.06453860000009
tp351
aa(lp352
I203011
aI46
aS'Pokopali\xc5\xa1ka \xe2\x86\x92'
p353
a(F14.529338100000123
F46.06548130000009
tp354
aa(lp355
I203012
aI47
aS'Pokopali\xc5\xa1ka'
p356
a(F14.529216100000125
F46.065442300000086
tp357
aa(lp358
I203021
aI80
aS'Ro\xc5\xbei\xc4\x8deva'
p359
a(F14.531894300000127
F46.06342210000008
tp360
aa(lp361
I203022
aI79
aS'Ro\xc5\xbei\xc4\x8deva \xe2\x86\x92'
p362
a(F14.532430700000127
F46.063463000000084
tp363
aa(lp364
I203031
aI408
aS'Toma\xc4\x8devska \xe2\x86\x92'
p365
a(F14.527182300000147
F46.06969610000008
tp366
aa(lp367
I203032
aI409
aS'Toma\xc4\x8devska'
p368
a(F14.527536400000146
F46.06944110000008
tp369
aa(lp370
I203041
aI81
aS'\xc5\xa0ola Jar\xc5\xa1e \xe2\x86\x92'
p371
a(F14.532999400000126
F46.066682600000085
tp372
aa(lp373
I203042
aI82
aS'\xc5\xa0ola Jar\xc5\xa1e'
p374
a(F14.534614000000126
F46.06725200000009
tp375
aa(lp376
I203044
aI462
aS'\xc5\xa0ola Jar\xc5\xa1e'
p377
a(F14.534407500000123
F46.066289900000086
tp378
aa(lp379
I203051
aI78
aS'Kav\xc4\x8di\xc4\x8deva'
p380
a(F14.535893400000127
F46.06405670000009
tp381
aa(lp382
I203052
aI77
aS'Kav\xc4\x8di\xc4\x8deva \xe2\x86\x92'
p383
a(F14.536309200000126
F46.06403060000009
tp384
aa(lp385
I203061
aI76
aS'Tovorni kolodvor \xe2\x86\x92'
p386
a(F14.538900200000127
F46.06165770000009
tp387
aa(lp388
I203062
aI75
aS'Tovorni kolodvor \xe2\x86\x92'
p389
a(F14.539617000000128
F46.060340300000085
tp390
aa(lp391
I203071
aI406
aS'Nove \xc5\xbdale \xe2\x86\x92'
p392
a(F14.531889600000147
F46.07463090000008
tp393
aa(lp394
I203072
aI407
aS'Nove \xc5\xbdale'
p395
a(F14.531998300000145
F46.074575100000075
tp396
aa(lp397
I203081
aI405
aS'Toma\xc4\x8devo \xe2\x86\x92'
p398
a(F14.536495000000144
F46.07951500000007
tp399
aa(lp400
I203091
aI83
aS'Jar\xc5\xa1e \xe2\x86\x92'
p401
a(F14.536719500000123
F46.06840950000009
tp402
aa(lp403
I203092
aI84
aS'Jar\xc5\xa1e'
p404
a(F14.538457600000124
F46.068731500000084
tp405
aa(lp406
I203101
aI85
aS'Kodrova \xe2\x86\x92'
p407
a(F14.539707500000125
F46.06913340000009
tp408
aa(lp409
I203102
aI86
aS'Kodrova'
p410
a(F14.541432200000123
F46.06920600000009
tp411
aa(lp412
I203111
aI467
aS'BTC\xe2\x80\x90uprava \xe2\x86\x92'
p413
a(F14.541916200000005
F46.06831239999989
tp414
aa(lp415
I203112
aI466
aS'BTC\xe2\x80\x90uprava'
p416
a(F14.541757800000005
F46.068167299999885
tp417
aa(lp418
I203121
aI469
aS'BTC\xe2\x80\x90tr\xc5\xbenica \xe2\x86\x92'
p419
a(F14.544222100000004
F46.06539819999989
tp420
aa(lp421
I203122
aI468
aS'BTC\xe2\x80\x90tr\xc5\xbenica'
p422
a(F14.544100800000004
F46.065367399999886
tp423
aa(lp424
I203131
aI473
aS'BTC\xe2\x80\x90Kolosej \xe2\x86\x92'
p425
a(F14.548425900000005
F46.06571169999989
tp426
aa(lp427
I203132
aI472
aS'BTC\xe2\x80\x90Kolosej'
p428
a(F14.547377100000004
F46.06591739999989
tp429
aa(lp430
I203141
aI471
aS'BTC\xe2\x80\x90Emporium \xe2\x86\x92'
p431
a(F14.544988799999974
F46.06207449999981
tp432
aa(lp433
I203142
aI470
aS'BTC\xe2\x80\x90Emporium'
p434
a(F14.545004899999974
F46.06179909999981
tp435
aa(lp436
I203151
aI87
aS'\xc5\xbdito \xe2\x86\x92'
p437
a(F14.545047800000125
F46.06986100000009
tp438
aa(lp439
I203152
aI88
aS'\xc5\xbdito'
p440
a(F14.546587400000124
F46.06988700000009
tp441
aa(lp442
I203161
aI89
aS'Nove Jar\xc5\xa1e\xe2\x80\x90\xc5\xa0martinska \xe2\x86\x92'
p443
a(F14.548936400000125
F46.07038020000009
tp444
aa(lp445
I203171
aI91
aS'Nove Jar\xc5\xa1e \xe2\x86\x92'
p446
a(F14.551879400000125
F46.06968650000009
tp447
aa(lp448
I203181
aI205
aS'Bratislavska \xe2\x86\x92'
p449
a(F14.5514371
F46.06614849999991
tp450
aa(lp451
I203182
aI206
aS'Bratislavska'
p452
a(F14.550886499999999
F46.065034799999914
tp453
aa(lp454
I203191
aI393
aS'Yulon \xe2\x86\x92'
p455
a(F14.5526495
F46.061974099999915
tp456
aa(lp457
I203192
aI394
aS'Yulon'
p458
a(F14.5537116
F46.061907099999914
tp459
aa(lp460
I204011
aI207
aS'Lesko\xc5\xa1kova \xe2\x86\x92'
p461
a(F14.557244099999998
F46.06204859999991
tp462
aa(lp463
I204012
aI208
aS'Lesko\xc5\xa1kova'
p464
a(F14.558182899999998
F46.06198529999991
tp465
aa(lp466
I204061
aI295
aS'Hrastje \xe2\x86\x92'
p467
a(F14.563973000000129
F46.07503940000013
tp468
aa(lp469
I204062
aI296
aS'Hrastje'
p470
a(F14.56376650000013
F46.07476400000014
tp471
aa(lp472
I204071
aI297
aS'Sneberje \xe2\x86\x92'
p473
a(F14.56923390000013
F46.07793690000014
tp474
aa(lp475
I204072
aI298
aS'Sneberje'
p476
a(F14.56953810000013
F46.07797750000014
tp477
aa(lp478
I204081
aI272
aS'Zadobrova \xe2\x86\x92'
p479
a(F14.579988500000129
F46.07110590000013
tp480
aa(lp481
I204082
aI301
aS'Zadobrova'
p482
a(F14.57985260000013
F46.071304700000134
tp483
aa(lp484
I204083
aI302
aS'Zadobrova \xe2\x86\x92'
p485
a(F14.58024060000013
F46.072488500000134
tp486
aa(lp487
I204101
aI270
aS'Novo Polje \xe2\x86\x92'
p488
a(F14.58314530000013
F46.06363790000014
tp489
aa(lp490
I204102
aI271
aS'Novo Polje \xe2\x86\x92'
p491
a(F14.583366300000131
F46.06324120000014
tp492
aa(lp493
I204111
aI430
aS'Slovenijales \xe2\x86\x92'
p494
a(F14.5527487
F46.093831099999896
tp495
aa(lp496
I204112
aI431
aS'Slovenijales'
p497
a(F14.5539289
F46.093546499999896
tp498
aa(lp499
I204121
aI429
aS'Brn\xc4\x8di\xc4\x8deva \xe2\x86\x92'
p500
a(F14.5558656
F46.0937564999999
tp501
aa(lp502
I204131
aI445
aS'Nadgorica \xe2\x86\x92'
p503
a(F14.5582204
F46.09728129999989
tp504
aa(lp505
I204132
aI446
aS'Nadgorica'
p506
a(F14.5586202
F46.096805099999905
tp507
aa(lp508
I204141
aI447
aS'Belinka \xe2\x86\x92'
p509
a(F14.5748877
F46.09139249999989
tp510
aa(lp511
I204142
aI448
aS'Belinka'
p512
a(F14.575443
F46.09126399999989
tp513
aa(lp514
I204151
aI449
aS'\xc5\xa0entjakob \xe2\x86\x92'
p515
a(F14.5827224
F46.09132919999989
tp516
aa(lp517
I204152
aI450
aS'\xc5\xa0entjakob'
p518
a(F14.5815851
F46.09120459999989
tp519
aa(lp520
I204161
aI451
aS'Reaktor \xe2\x86\x92'
p521
a(F14.596396900000014
F46.0909706000001
tp522
aa(lp523
I204162
aI452
aS'Reaktor'
p524
a(F14.597353800000015
F46.090830500000095
tp525
aa(lp526
I204171
aI453
aS'Beri\xc4\x8devo \xe2\x86\x92'
p527
a(F14.613040000000014
F46.0901874000001
tp528
aa(lp529
I204181
aI287
aS'Zadru\xc5\xbeni dom \xe2\x86\x92'
p530
a(F14.613742300000135
F46.06082740000018
tp531
aa(lp532
I204182
aI288
aS'Zadru\xc5\xbeni dom'
p533
a(F14.613704800000137
F46.06102650000018
tp534
aa(lp535
I204191
aI289
aS'Zeleni gaj \xe2\x86\x92'
p536
a(F14.612782100000135
F46.06640730000018
tp537
aa(lp538
I204192
aI290
aS'Zeleni gaj'
p539
a(F14.612808900000138
F46.06654260000018
tp540
aa(lp541
I204201
aI291
aS'Saturnus \xe2\x86\x92'
p542
a(F14.608798900000137
F46.06725210000018
tp543
aa(lp544
I204211
aI292
aS'Zalog \xe2\x86\x92'
p545
a(F14.604705800000138
F46.06911860000018
tp546
aa(lp547
I300011
aI56
aS'Kolodvor \xe2\x86\x92'
p548
a(F14.509154500000129
F46.05764690000009
tp549
aa(lp550
I300012
aI57
aS'Kolodvor'
p551
a(F14.511152700000128
F46.057589100000094
tp552
aa(lp553
I301011
aI54
aS'Fri\xc5\xa1kovec \xe2\x86\x92'
p554
a(F14.518297600000128
F46.05737550000009
tp555
aa(lp556
I301012
aI55
aS'Fri\xc5\xa1kovec'
p557
a(F14.516608400000129
F46.05752950000009
tp558
aa(lp559
I303011
aI71
aS'Tr\xc5\xbenica Moste \xe2\x86\x92'
p560
a(F14.53437400000013
F46.055755700000084
tp561
aa(lp562
I303012
aI72
aS'Tr\xc5\xbenica Moste'
p563
a(F14.533810700000128
F46.05552310000008
tp564
aa(lp565
I303021
aI73
aS'Zalo\xc5\xa1ka \xe2\x86\x92'
p566
a(F14.539777000000129
F46.056068300000085
tp567
aa(lp568
I303022
aI74
aS'Kajuhova \xe2\x86\x92'
p569
a(F14.54069730000013
F46.05640910000008
tp570
aa(lp571
I303024
aI255
aS'Zalo\xc5\xa1ka'
p572
a(F14.54228240000013
F46.05586370000008
tp573
aa(lp574
I303032
aI250
aS'Ob soto\xc4\x8dju'
p575
a(F14.540024000000129
F46.05409170000008
tp576
aa(lp577
I303041
aI147
aS'\xc5\xa0tepanjsko naselje \xe2\x86\x92'
p578
a(F14.547862900000133
F46.05378070000007
tp579
aa(lp580
I303043
aI252
aS'\xc5\xa0tepanjsko naselje \xe2\x86\x92'
p581
a(F14.548117600000133
F46.05346040000007
tp582
aa(lp583
I303051
aI256
aS'Pot na Fu\xc5\xbeine \xe2\x86\x92'
p584
a(F14.549674500000139
F46.05622220000018
tp585
aa(lp586
I303052
aI274
aS'Pot na Fu\xc5\xbeine'
p587
a(F14.551138900000137
F46.05606400000017
tp588
aa(lp589
I303061
aI275
aS'Archinetova \xe2\x86\x92'
p590
a(F14.555296300000139
F46.05624450000018
tp591
aa(lp592
I303062
aI276
aS'Archinetova'
p593
a(F14.55685200000014
F46.05606590000018
tp594
aa(lp595
I303071
aI257
aS'Brodarjev trg \xe2\x86\x92'
p596
a(F14.553169300000135
F46.05433850000017
tp597
aa(lp598
I303072
aI258
aS'Brodarjev trg'
p599
a(F14.55312920000014
F46.05426210000018
tp600
aa(lp601
I304011
aI259
aS'Preglov trg \xe2\x86\x92'
p602
a(F14.55898570000014
F46.05463820000018
tp603
aa(lp604
I304012
aI260
aS'Preglov trg'
p605
a(F14.55831920000014
F46.05454420000018
tp606
aa(lp607
I304021
aI277
aS'Osenjakova \xe2\x86\x92'
p608
a(F14.560684900000137
F46.05609380000017
tp609
aa(lp610
I304022
aI278
aS'Osenjakova'
p611
a(F14.562125200000137
F46.05567680000017
tp612
aa(lp613
I304031
aI261
aS'Rusjanov trg \xe2\x86\x92'
p614
a(F14.563922300000138
F46.05465120000018
tp615
aa(lp616
I304032
aI262
aS'Rusjanov trg'
p617
a(F14.562744800000138
F46.05457680000017
tp618
aa(lp619
I304041
aI279
aS'Chengdujska \xe2\x86\x92'
p620
a(F14.565867000000136
F46.05513700000017
tp621
aa(lp622
I304042
aI263
aS'Chengdujska'
p623
a(F14.567328700000138
F46.05485970000017
tp624
aa(lp625
I304051
aI396
aS'Fu\xc5\xbeine \xe2\x86\x92'
p626
a(F14.565966800000139
F46.052125700000175
tp627
aa(lp628
I304061
aI264
aS'Studenec \xe2\x86\x92'
p629
a(F14.576686000000137
F46.05448160000018
tp630
aa(lp631
I304062
aI265
aS'Studenec'
p632
a(F14.575853200000136
F46.05457390000018
tp633
aa(lp634
I304071
aI266
aS'Polje \xe2\x86\x92'
p635
a(F14.582567000000129
F46.05399270000013
tp636
aa(lp637
I304072
aI280
aS'Polje'
p638
a(F14.582655500000131
F46.05387720000014
tp639
aa(lp640
I304073
aI303
aS'Polje'
p641
a(F14.58337330000013
F46.05456810000013
tp642
aa(lp643
I304074
aI267
aS'Polje \xe2\x86\x92'
p644
a(F14.58363720000013
F46.055042600000135
tp645
aa(lp646
I304082
aI269
aS'Polje\xe2\x80\x90kolodvor \xe2\x86\x92'
p647
a(F14.58369520000013
F46.05696740000014
tp648
aa(lp649
I304091
aI281
aS'Cesta na Vev\xc4\x8de \xe2\x86\x92'
p650
a(F14.589130400000132
F46.05397590000014
tp651
aa(lp652
I304092
aI282
aS'Cesta na Vev\xc4\x8de'
p653
a(F14.58926990000013
F46.05388110000014
tp654
aa(lp655
I304101
aI304
aS'Vev\xc4\x8de \xe2\x86\x92'
p656
a(F14.59311620000013
F46.049622000000134
tp657
aa(lp658
I304102
aI578
aS'Lj. Vev\xc4\x8de Papirnica'
p659
a(F14.594216299999983
F46.04734659999982
tp660
aa(lp661
I304103
aI577
aS'Lj. Vev\xc4\x8de Papirnica \xe2\x86\x92'
p662
a(F14.594314999999984
F46.04744769999982
tp663
aa(lp664
I304111
aI283
aS'Petrol \xe2\x86\x92'
p665
a(F14.601425600000136
F46.05675680000018
tp666
aa(lp667
I304112
aI284
aS'Petrol'
p668
a(F14.601653600000137
F46.05670510000018
tp669
aa(lp670
I304131
aI285
aS'Silos \xe2\x86\x92'
p671
a(F14.606146300000137
F46.05773400000018
tp672
aa(lp673
I304132
aI286
aS'Silos'
p674
a(F14.606242700000136
F46.05765990000018
tp675
aa(lp676
I402011
aI131
aS'Hrvatski trg \xe2\x86\x92'
p677
a(F14.516772000000131
F46.05257370000009
tp678
aa(lp679
I402012
aI132
aS'Hrvatski trg'
p680
a(F14.51823910000013
F46.05232890000009
tp681
aa(lp682
I402021
aI249
aS'Poliklinika \xe2\x86\x92'
p683
a(F14.519169700000129
F46.05371930000009
tp684
aa(lp685
I402022
aI248
aS'Poliklinika'
p686
a(F14.519059900000128
F46.05359650000009
tp687
aa(lp688
I402031
aI67
aS'Klini\xc4\x8dni center \xe2\x86\x92'
p689
a(F14.52060730000013
F46.052403100000085
tp690
aa(lp691
I402032
aI68
aS'Klini\xc4\x8dni center'
p692
a(F14.52081380000013
F46.052333300000086
tp693
aa(lp694
I402041
aI69
aS'Bolnica \xe2\x86\x92'
p695
a(F14.528063900000129
F46.05420510000008
tp696
aa(lp697
I402042
aI70
aS'Bolnica'
p698
a(F14.52922550000013
F46.054387700000085
tp699
aa(lp700
I402051
aI137
aS'Glonarjeva \xe2\x86\x92'
p701
a(F14.526473000000133
F46.05040190000006
tp702
aa(lp703
I402052
aI138
aS'Glonarjeva'
p704
a(F14.526845800000133
F46.05061040000007
tp705
aa(lp706
I402061
aI135
aS'Gornje Poljane \xe2\x86\x92'
p707
a(F14.522668800000133
F46.048870000000065
tp708
aa(lp709
I402062
aI136
aS'Gornje Poljane'
p710
a(F14.524431000000133
F46.04879740000007
tp711
aa(lp712
I403011
aI139
aS'Jana Husa \xe2\x86\x92'
p713
a(F14.532760200000133
F46.05319590000007
tp714
aa(lp715
I403012
aI140
aS'Jana Husa'
p716
a(F14.533066800000134
F46.05319960000007
tp717
aa(lp718
I403021
aI251
aS'Kodeljevo \xe2\x86\x92'
p719
a(F14.539065100000133
F46.052140700000066
tp720
aa(lp721
I403022
aI142
aS'Kodeljevo'
p722
a(F14.539100100000134
F46.05154140000006
tp723
aa(lp724
I403023
aI141
aS'Kodeljevo \xe2\x86\x92'
p725
a(F14.539439300000133
F46.05153110000006
tp726
aa(lp727
I403025
aI539
aS'Kodeljevo \xe2\x80\x90 obra\xc4\x8dali\xc5\xa1\xc4\x8de'
p728
a(F14.539220600000133
F46.05185590000007
tp729
aa(lp730
I403031
aI305
aS'Pod Golovcem \xe2\x86\x92'
p731
a(F14.529492300000134
F46.04854430000007
tp732
aa(lp733
I403032
aI306
aS'Pod Golovcem'
p734
a(F14.529680000000134
F46.04846230000007
tp735
aa(lp736
I403041
aI307
aS'\xc5\xa0tepanja vas \xe2\x86\x92'
p737
a(F14.537445000000133
F46.04796530000007
tp738
aa(lp739
I403042
aI144
aS'\xc5\xa0tepanja vas'
p740
a(F14.538888100000133
F46.047905700000065
tp741
aa(lp742
I403043
aI143
aS'\xc5\xa0tepanja vas \xe2\x86\x92'
p743
a(F14.538496500000134
F46.048393400000066
tp744
aa(lp745
I403051
aI145
aS'Emona \xe2\x86\x92'
p746
a(F14.544675500000134
F46.047726900000065
tp747
aa(lp748
I403052
aI146
aS'Emona'
p749
a(F14.545002700000133
F46.04762080000007
tp750
aa(lp751
I403061
aI308
aS'Rast \xe2\x86\x92'
p752
a(F14.551389499999985
F46.04696679999983
tp753
aa(lp754
I403062
aI309
aS'Rast'
p755
a(F14.551638799999985
F46.04682909999983
tp756
aa(lp757
I403071
aI532
aS'Bile\xc4\x8danska \xe2\x86\x92'
p758
a(F14.544064199999985
F46.04599139999981
tp759
aa(lp760
I403072
aI531
aS'Bile\xc4\x8danska'
p761
a(F14.544082999999985
F46.04585179999981
tp762
aa(lp763
I404011
aI310
aS'Hru\xc5\xa1ica \xe2\x86\x92'
p764
a(F14.559460099999985
F46.04549809999983
tp765
aa(lp766
I404012
aI311
aS'Hru\xc5\xa1ica'
p767
a(F14.560234899999985
F46.04529919999984
tp768
aa(lp769
I404021
aI312
aS'Cesta v Bizovik \xe2\x86\x92'
p770
a(F14.570177799999986
F46.04459559999984
tp771
aa(lp772
I404022
aI313
aS'Cesta v Bizovik'
p773
a(F14.570127299999985
F46.044516899999834
tp774
aa(lp775
I404031
aI314
aS'Dobrunje \xe2\x86\x92'
p776
a(F14.579279099999985
F46.04322879999983
tp777
aa(lp778
I404032
aI315
aS'Dobrunje'
p779
a(F14.580439899999986
F46.04295899999984
tp780
aa(lp781
I404041
aI316
aS'Po\xc5\xa1ta Dobrunje \xe2\x86\x92'
p782
a(F14.586324699999984
F46.041962999999825
tp783
aa(lp784
I404042
aI317
aS'Po\xc5\xa1ta Dobrunje'
p785
a(F14.586517899999984
F46.04189599999982
tp786
aa(lp787
I404051
aI318
aS'KPL \xe2\x86\x92'
p788
a(F14.592046399999985
F46.041461899999824
tp789
aa(lp790
I404052
aI319
aS'KPL'
p791
a(F14.592807999999984
F46.04126629999982
tp792
aa(lp793
I404062
aI321
aS'Zadvor'
p794
a(F14.597697199999985
F46.04012159999982
tp795
aa(lp796
I404071
aI322
aS'Cesta v Zavoglje \xe2\x86\x92'
p797
a(F14.602584199999985
F46.04026309999983
tp798
aa(lp799
I404072
aI323
aS'Cesta v Zavoglje'
p800
a(F14.602600799999985
F46.040180799999824
tp801
aa(lp802
I404081
aI324
aS'Kri\xc5\xbei\xc5\xa1\xc4\x8de Sostro \xe2\x86\x92'
p803
a(F14.608163199999986
F46.03723939999982
tp804
aa(lp805
I404082
aI325
aS'Kri\xc5\xbei\xc5\xa1\xc4\x8de Sostro'
p806
a(F14.607924499999985
F46.037189199999816
tp807
aa(lp808
I404083
aI579
aS'Kri\xc5\xbei\xc5\xa1\xc4\x8de Sostro \xe2\x86\x92'
p809
a(F14.608849899999985
F46.03769559999982
tp810
aa(lp811
I404084
aI580
aS'Kri\xc5\xbei\xc5\xa1\xc4\x8de Sostro'
p812
a(F14.608801699999985
F46.03755429999982
tp813
aa(lp814
I404091
aI326
aS'Sostro \xe2\x86\x92'
p815
a(F14.604345999999985
F46.03187039999982
tp816
aa(lp817
I404092
aI637
aS'Sostro'
p818
a(F14.603474299999986
F46.03306399999982
tp819
aa(lp820
I404093
aI638
aS'Sostro \xe2\x86\x92'
p821
a(F14.604011399999985
F46.03261799999982
tp822
aa(lp823
I404101
aI534
aS'Kro\xc5\xbena pot \xe2\x86\x92'
p824
a(F14.555941099999984
F46.041214099999806
tp825
aa(lp826
I404102
aI533
aS'Kro\xc5\xbena pot'
p827
a(F14.555656699999984
F46.041264399999804
tp828
aa(lp829
I404111
aI536
aS'Hru\xc5\xa1evska \xe2\x86\x92'
p830
a(F14.566431299999987
F46.039313099999816
tp831
aa(lp832
I404112
aI535
aS'Hru\xc5\xa1evska'
p833
a(F14.566975699999988
F46.039184699999815
tp834
aa(lp835
I404121
aI537
aS'Bizovik'
p836
a(F14.571140299999987
F46.03749939999981
tp837
aa(lp838
I404123
aI538
aS'Bizovik \xe2\x86\x92'
p839
a(F14.570985099999987
F46.03742369999981
tp840
aa(lp841
I404131
aI611
aS'Ljubljana Dobrunje \xe2\x86\x92'
p842
a(F14.582720199999985
F46.038259299999815
tp843
aa(lp844
I404132
aI610
aS'Ljubljana Dobrunje'
p845
a(F14.582771199999986
F46.03815689999982
tp846
aa(lp847
I404141
aI613
aS'Dobrunje pod Urhom \xe2\x86\x92'
p848
a(F14.589860299999986
F46.03833189999982
tp849
aa(lp850
I404142
aI612
aS'Dobrunje pod Urhom'
p851
a(F14.589903199999986
F46.03825189999982
tp852
aa(lp853
I404151
aI615
aS'Ljubljana Zadvor \xe2\x86\x92'
p854
a(F14.596152699999985
F46.036078999999816
tp855
aa(lp856
I404152
aI614
aS'Ljubljana Zadvor'
p857
a(F14.596125899999985
F46.03599329999982
tp858
aa(lp859
I404161
aI617
aS'O\xc5\xa0 Sostro \xe2\x86\x92'
p860
a(F14.599620799999986
F46.03506789999982
tp861
aa(lp862
I404162
aI616
aS'O\xc5\xa0 Sostro'
p863
a(F14.599569899999986
F46.03498229999982
tp864
aa(lp865
I405012
aI582
aS'Javor/K.'
p866
a(F14.640304999999985
F46.04018200000001
tp867
aa(lp868
I405021
aI583
aS'Besnica/Lj. \xe2\x86\x92'
p869
a(F14.650041399999985
F46.03706510000001
tp870
aa(lp871
I405022
aI584
aS'Besnica/Lj.'
p872
a(F14.650295299999986
F46.036813000000016
tp873
aa(lp874
I405031
aI585
aS'Besnica/Lj.\xc5\xa0. \xe2\x86\x92'
p875
a(F14.657484499999985
F46.0354899
tp876
aa(lp877
I405032
aI586
aS'Besnica/Lj.\xc5\xa0.'
p878
a(F14.658231999999984
F46.0352061
tp879
aa(lp880
I405041
aI587
aS'Bla\xc5\xbeevo \xe2\x86\x92'
p881
a(F14.668252299999985
F46.031738700000005
tp882
aa(lp883
I405042
aI588
aS'Bla\xc5\xbeevo'
p884
a(F14.668252299999985
F46.0316651
tp885
aa(lp886
I405051
aI589
aS'Besnica ambulanta \xe2\x86\x92'
p887
a(F14.688155699999982
F46.033361600000035
tp888
aa(lp889
I405052
aI590
aS'Besnica ambulanta'
p890
a(F14.688278099999986
F46.033288100000014
tp891
aa(lp892
I405061
aI593
aS'Besnica kamnolom \xe2\x86\x92'
p893
a(F14.710069299999985
F46.02046680000003
tp894
aa(lp895
I405062
aI594
aS'Besnica kamnolom'
p896
a(F14.710055799999983
F46.020360700000026
tp897
aa(lp898
I405071
aI591
aS'Zg. Besnica \xe2\x86\x92'
p899
a(F14.702198799999982
F46.02563630000004
tp900
aa(lp901
I405072
aI592
aS'Zg. Besnica'
p902
a(F14.701883099999984
F46.025722700000024
tp903
aa(lp904
I406011
aI595
aS'\xc5\xa0emnikar \xe2\x86\x92'
p905
a(F14.718316199999979
F46.01943050000004
tp906
aa(lp907
I406012
aI596
aS'\xc5\xa0emnikar'
p908
a(F14.718365299999979
F46.01934380000004
tp909
aa(lp910
I406021
aI597
aS'Trebeljevo \xe2\x86\x92'
p911
a(F14.738364399999979
F46.01327670000005
tp912
aa(lp913
I406022
aI598
aS'Trebeljevo'
p914
a(F14.738500599999979
F46.01354530000004
tp915
aa(lp916
I406031
aI599
aS'Pr\xc5\xbeganje \xc5\xa0. K. \xe2\x86\x92'
p917
a(F14.740938899999978
F46.02009440000004
tp918
aa(lp919
I406032
aI600
aS'Pr\xc5\xbeganje \xc5\xa0. K.'
p920
a(F14.740933399999978
F46.020174500000046
tp921
aa(lp922
I406041
aI601
aS'Pr\xc5\xbeganje \xc5\xa0. \xe2\x86\x92'
p923
a(F14.730496899999975
F46.02334260000006
tp924
aa(lp925
I406042
aI602
aS'Pr\xc5\xbeganje \xc5\xa0.'
p926
a(F14.730491499999976
F46.02343010000006
tp927
aa(lp928
I406051
aI603
aS'Smrekarjevo \xe2\x86\x92'
p929
a(F14.726175999999976
F46.02913630000006
tp930
aa(lp931
I406052
aI604
aS'Smrekarjevo'
p932
a(F14.726287699999975
F46.02918960000005
tp933
aa(lp934
I406061
aI605
aS'Volavlje \xe2\x86\x92'
p935
a(F14.717247099999973
F46.03206850000006
tp936
aa(lp937
I406062
aI606
aS'Volavlje'
p938
a(F14.717268499999973
F46.03216720000006
tp939
aa(lp940
I406071
aI607
aS'Lani\xc5\xa1\xc4\x8de \xe2\x86\x92'
p941
a(F14.709481999999973
F46.04511310000007
tp942
aa(lp943
I406072
aI608
aS'Lani\xc5\xa1\xc4\x8de'
p944
a(F14.709597199999974
F46.04511310000008
tp945
aa(lp946
I406081
aI609
aS'Tuji Grm \xe2\x86\x92'
p947
a(F14.720841099999975
F46.051010700000084
tp948
aa(lp949
I415011
aI619
aS'Sadinja vas \xe2\x86\x92'
p950
a(F14.612390299999982
F46.02164350000008
tp951
aa(lp952
I415012
aI618
aS'Sadinja vas'
p953
a(F14.612264199999982
F46.021593300000085
tp954
aa(lp955
I415021
aI621
aS'Podlipoglav \xe2\x86\x92'
p956
a(F14.623317699999982
F46.01704860000008
tp957
aa(lp958
I415022
aI620
aS'Podlipoglav'
p959
a(F14.623237099999981
F46.01697780000008
tp960
aa(lp961
I415031
aI627
aS'Veliki Lipoglav \xe2\x86\x92'
p962
a(F14.653205599999982
F46.00515980000009
tp963
aa(lp964
I415032
aI626
aS'Veliki Lipoglav'
p965
a(F14.65313299999998
F46.00545240000009
tp966
aa(lp967
I415041
aI629
aS'Selo pri Pancah K. \xe2\x86\x92'
p968
a(F14.65719669999998
F45.99933940000008
tp969
aa(lp970
I415042
aI628
aS'Selo pri Pancah K.'
p971
a(F14.657320099999982
F45.99923320000009
tp972
aa(lp973
I415051
aI633
aS'Pance K. \xe2\x86\x92'
p974
a(F14.664210499999983
F45.98859120000007
tp975
aa(lp976
I415052
aI632
aS'Pance K.'
p977
a(F14.663700899999982
F45.98863970000007
tp978
aa(lp979
I415061
aI636
aS'Mali Lipoglav \xe2\x86\x92'
p980
a(F14.647693299999982
F45.992274200000075
tp981
aa(lp982
I415071
aI635
aS'Pri Dogonivar \xe2\x86\x92'
p983
a(F14.657637899999981
F45.98924160000008
tp984
aa(lp985
I415072
aI634
aS'Pri Dogonivar'
p986
a(F14.657584199999983
F45.989352500000074
tp987
aa(lp988
I415081
aI631
aS'Primo\xc5\xbeev ovinek \xe2\x86\x92'
p989
a(F14.659052599999981
F45.991934400000076
tp990
aa(lp991
I415082
aI630
aS'Primo\xc5\xbeev ovinek'
p992
a(F14.658583299999982
F45.991982900000075
tp993
aa(lp994
I415091
aI623
aS'Pri Dolencu \xe2\x86\x92'
p995
a(F14.639673699999982
F46.01789610000008
tp996
aa(lp997
I415092
aI622
aS'Pri Dolencu'
p998
a(F14.639657599999982
F46.01781230000008
tp999
aa(lp1000
I425011
aI625
aS'Javor pri Sostrem K. \xe2\x86\x92'
p1001
a(F14.653047499999982
F46.01241200000008
tp1002
aa(lp1003
I425012
aI624
aS'Javor pri Sostrem K.'
p1004
a(F14.652964299999983
F46.012333700000084
tp1005
aa(lp1006
I500011
aI127
aS'RTV \xe2\x86\x92'
p1007
a(F14.506359600000128
F46.054648200000095
tp1008
aa(lp1009
I501011
aI129
aS'Ilirska \xe2\x86\x92'
p1010
a(F14.513475500000128
F46.05301210000009
tp1011
aa(lp1012
I501012
aI130
aS'Ilirska'
p1013
a(F14.513652500000129
F46.0529302000001
tp1014
aa(lp1015
I501021
aI495
aS'Zmajski most \xe2\x86\x92'
p1016
a(F14.510629700000129
F46.05126980000009
tp1017
aa(lp1018
I501022
aI494
aS'Zmajski most'
p1019
a(F14.510173700000129
F46.05224140000009
tp1020
aa(lp1021
I501031
aI497
aS'Krekov trg'
p1022
a(F14.510609900000128
F46.05048100000009
tp1023
aa(lp1024
I501032
aI496
aS'Krekov trg \xe2\x86\x92'
p1025
a(F14.510462300000132
F46.05032450000009
tp1026
aa(lp1027
I502011
aI65
aS'Poljanska \xe2\x86\x92'
p1028
a(F14.51438750000013
F46.050437600000095
tp1029
aa(lp1030
I502012
aI66
aS'Poljanska'
p1031
a(F14.515568100000129
F46.05007800000009
tp1032
aa(lp1033
I502013
aI133
aS'Ambro\xc5\xbeev trg \xe2\x86\x92'
p1034
a(F14.516762600000131
F46.049770300000084
tp1035
aa(lp1036
I502014
aI134
aS'Ambro\xc5\xbeev trg \xe2\x86\x92'
p1037
a(F14.516454100000129
F46.04980100000009
tp1038
aa(lp1039
I502021
aI500
aS'Ro\xc5\xa1ka \xe2\x86\x92'
p1040
a(F14.519540700000134
F46.04847770000006
tp1041
aa(lp1042
I502022
aI465
aS'Ro\xc5\xa1ka'
p1043
a(F14.520299500000133
F46.04876080000006
tp1044
aa(lp1045
I502031
aI498
aS'Streli\xc5\xa1ka \xe2\x86\x92'
p1046
a(F14.516810200000133
F46.04459240000006
tp1047
aa(lp1048
I502032
aI499
aS'Streli\xc5\xa1ka'
p1049
a(F14.518374000000133
F46.044985300000064
tp1050
aa(lp1051
I503011
aI100
aS'Streli\xc5\xa1\xc4\x8de \xe2\x86\x92'
p1052
a(F14.516963100000133
F46.03943150000007
tp1053
aa(lp1054
I503012
aI101
aS'Streli\xc5\xa1\xc4\x8de'
p1055
a(F14.518084300000133
F46.038338600000074
tp1056
aa(lp1057
I503014
aI503
aS'Orlova'
p1058
a(F14.516681100000133
F46.038527900000076
tp1059
aa(lp1060
I503021
aI102
aS'Rakovnik \xe2\x86\x92'
p1061
a(F14.522788900000133
F46.03630720000007
tp1062
aa(lp1063
I503022
aI103
aS'Rakovnik'
p1064
a(F14.524008900000133
F46.035530100000074
tp1065
aa(lp1066
I503031
aI104
aS'Akademija \xe2\x86\x92'
p1067
a(F14.529183300000133
F46.03230930000007
tp1068
aa(lp1069
I503032
aI105
aS'Akademija'
p1070
a(F14.529159100000133
F46.03208960000007
tp1071
aa(lp1072
I503041
aI106
aS'Peruzzijeva \xe2\x86\x92'
p1073
a(F14.532616500000133
F46.030003900000075
tp1074
aa(lp1075
I503042
aI107
aS'Peruzzijeva'
p1076
a(F14.531688100000133
F46.03037400000007
tp1077
aa(lp1078
I503051
aI508
aS'Mihov \xc5\xa1tradon \xe2\x86\x92'
p1079
a(F14.521063499999975
F46.029586399999815
tp1080
aa(lp1081
I503052
aI509
aS'Mihov \xc5\xa1tradon'
p1082
a(F14.521972799999975
F46.029053799999815
tp1083
aa(lp1084
I504011
aI108
aS'Gornji Rudnik \xe2\x86\x92'
p1085
a(F14.535758600000134
F46.02815660000007
tp1086
aa(lp1087
I504012
aI109
aS'Gornji Rudnik'
p1088
a(F14.535583000000134
F46.02803560000007
tp1089
aa(lp1090
I504021
aI110
aS'Spodnji Rudnik \xe2\x86\x92'
p1091
a(F14.540158800000134
F46.02368880000007
tp1092
aa(lp1093
I504022
aI111
aS'Spodnji Rudnik'
p1094
a(F14.540496900000134
F46.022884200000064
tp1095
aa(lp1096
I504031
aI112
aS'Rudnik \xe2\x86\x92'
p1097
a(F14.543916700000134
F46.01796530000007
tp1098
aa(lp1099
I504041
aI510
aS'Jur\xc4\x8dkova \xe2\x86\x92'
p1100
a(F14.527546599999976
F46.026574999999816
tp1101
aa(lp1102
I504042
aI511
aS'Jur\xc4\x8dkova'
p1103
a(F14.528697099999976
F46.02592889999981
tp1104
aa(lp1105
I504051
aI512
aS'NS Rudnik \xe2\x86\x92'
p1106
a(F14.535080899999976
F46.020272599999814
tp1107
aa(lp1108
I504052
aI513
aS'NS Rudnik'
p1109
a(F14.534879699999976
F46.020334099999815
tp1110
aa(lp1111
I504061
aI514
aS'NS Rudnik \xe2\x86\x92'
p1112
a(F14.535370499999976
F46.018356099999814
tp1113
aa(lp1114
I504071
aI657
aS'Pod Hribom \xe2\x86\x92'
p1115
a(F14.549064700000011
F46.00633090000008
tp1116
aa(lp1117
I504072
aI656
aS'Pod Hribom'
p1118
a(F14.548504100000011
F46.00646130000008
tp1119
aa(lp1120
I504081
aI659
aS'Lavrica pri Mal\xc4\x8di \xe2\x86\x92'
p1121
a(F14.555263400000012
F46.00022720000008
tp1122
aa(lp1123
I504082
aI658
aS'Lavrica pri Mal\xc4\x8di'
p1124
a(F14.554453300000011
F46.00140860000008
tp1125
aa(lp1126
I504091
aI661
aS'Lavrica \xe2\x86\x92'
p1127
a(F14.557837700000011
F45.99721340000008
tp1128
aa(lp1129
I504092
aI660
aS'Lavrica'
p1130
a(F14.55799820000001
F45.99701050000008
tp1131
aa(lp1132
I504101
aI663
aS'\xc5\xa0kofljica Petkov\xc5\xa1ek \xe2\x86\x92'
p1133
a(F14.566505700000011
F45.98959550000008
tp1134
aa(lp1135
I504102
aI662
aS'\xc5\xa0kofljica Petkov\xc5\xa1ek'
p1136
a(F14.566391100000011
F45.98954040000008
tp1137
aa(lp1138
I504111
aI665
aS'\xc5\xa0kofljica \xc5\xbeaga \xe2\x86\x92'
p1139
a(F14.57122250000001
F45.98622910000008
tp1140
aa(lp1141
I504112
aI664
aS'\xc5\xa0kofljica \xc5\xbeaga'
p1142
a(F14.57171340000001
F45.98585450000008
tp1143
aa(lp1144
I515011
aI666
aS'\xc5\xa0kofljica \xc5\xa1pica \xe2\x86\x92'
p1145
a(F14.57452860000001
F45.98434600000008
tp1146
aa(lp1147
I515013
aI667
aS'\xc5\xa0kofljica \xe2\x86\x92'
p1148
a(F14.57516550000001
F45.979296600000076
tp1149
aa(lp1150
I600011
aI59
aS'Bavarski dvor (Korabar)'
p1151
a(F14.505682900000128
F46.05669020000003
tp1152
aa(lp1153
I600012
aI58
aS'Bavarski dvor (Kozolec)'
p1154
a(F14.505091600000128
F46.056021700000024
tp1155
aa(lp1156
I600022
aI492
aS'Ajdov\xc5\xa1\xc4\x8dina \xe2\x86\x92'
p1157
a(F14.503834100000127
F46.05350290000006
tp1158
aa(lp1159
I600032
aI493
aS'Dalmatinova'
p1160
a(F14.505155200000129
F46.05413630000009
tp1161
aa(lp1162
I601011
aI27
aS'Po\xc5\xa1ta \xe2\x86\x92'
p1163
a(F14.503409600000127
F46.052064000000065
tp1164
aa(lp1165
I601012
aI26
aS'Konzorcij'
p1166
a(F14.502812200000127
F46.05121010000006
tp1167
aa(lp1168
I602011
aI347
aS'Cankarjev dom \xe2\x86\x92'
p1169
a(F14.498205600000128
F46.05082660000009
tp1170
aa(lp1171
I602012
aI346
aS'Cankarjev dom'
p1172
a(F14.497248400000128
F46.050005900000095
tp1173
aa(lp1174
I602021
aI29
aS'Drama \xe2\x86\x92'
p1175
a(F14.501897400000127
F46.048856600000065
tp1176
aa(lp1177
I602022
aI28
aS'Drama'
p1178
a(F14.501658700000126
F46.04879140000006
tp1179
aa(lp1180
I602031
aI35
aS'Hajdrihova \xe2\x86\x92'
p1181
a(F14.490498300000127
F46.04573290000007
tp1182
aa(lp1183
I602032
aI34
aS'Hajdrihova'
p1184
a(F14.490008300000127
F46.045800200000066
tp1185
aa(lp1186
I602041
aI33
aS'Toba\xc4\x8dna \xe2\x86\x92'
p1187
a(F14.494239300000126
F46.047049700000066
tp1188
aa(lp1189
I602042
aI32
aS'Toba\xc4\x8dna'
p1190
a(F14.493351400000126
F46.04695610000007
tp1191
aa(lp1192
I602051
aI31
aS'A\xc5\xa1ker\xc4\x8deva \xe2\x86\x92'
p1193
a(F14.498659300000126
F46.04664460000007
tp1194
aa(lp1195
I602052
aI30
aS'A\xc5\xa1ker\xc4\x8deva'
p1196
a(F14.499187000000127
F46.046689700000066
tp1197
aa(lp1198
I602061
aI94
aS'Kri\xc5\xbeanke \xe2\x86\x92'
p1199
a(F14.501611300000128
F46.046312900000096
tp1200
aa(lp1201
I602062
aI95
aS'Kri\xc5\xbeanke'
p1202
a(F14.501888300000129
F46.04611500000009
tp1203
aa(lp1204
I602071
aI247
aS'Mirje \xe2\x86\x92'
p1205
a(F14.500569700000014
F46.044362999999976
tp1206
aa(lp1207
I602072
aI246
aS'Mirje'
p1208
a(F14.500754800000013
F46.045807699999976
tp1209
aa(lp1210
I602092
aI242
aS'Ziherlova'
p1211
a(F14.499638900000013
F46.04038919999998
tp1212
aa(lp1213
I602093
aI520
aS'Ziherlova \xe2\x86\x92'
p1214
a(F14.500016700000014
F46.041480799999974
tp1215
aa(lp1216
I602101
aI96
aS'Gornji trg \xe2\x86\x92'
p1217
a(F14.506078000000128
F46.045945600000096
tp1218
aa(lp1219
I602102
aI97
aS'Gornji trg'
p1220
a(F14.506413200000129
F46.04577810000009
tp1221
aa(lp1222
I602111
aI98
aS'Privoz \xe2\x86\x92'
p1223
a(F14.511252700000133
F46.04410280000007
tp1224
aa(lp1225
I602112
aI99
aS'Privoz'
p1226
a(F14.510914800000133
F46.04405250000007
tp1227
aa(lp1228
I602121
aI235
aS'Trnovo \xe2\x86\x92'
p1229
a(F14.509085600000013
F46.040992399999986
tp1230
aa(lp1231
I603011
aI37
aS'Jadranska \xe2\x86\x92'
p1232
a(F14.488535600000123
F46.04354730000007
tp1233
aa(lp1234
I603012
aI36
aS'Jadranska'
p1235
a(F14.489386600000124
F46.04205830000007
tp1236
aa(lp1237
I603021
aI39
aS'Gerbi\xc4\x8deva \xe2\x86\x92'
p1238
a(F14.490096100000125
F46.03968810000007
tp1239
aa(lp1240
I603022
aI38
aS'Gerbi\xc4\x8deva'
p1241
a(F14.490088000000124
F46.03936970000007
tp1242
aa(lp1243
I603031
aI41
aS'Krimska \xe2\x86\x92'
p1244
a(F14.489276400000126
F46.03663840000007
tp1245
aa(lp1246
I603032
aI40
aS'Krimska'
p1247
a(F14.488933700000125
F46.03664920000007
tp1248
aa(lp1249
I603041
aI43
aS'Koprska \xe2\x86\x92'
p1250
a(F14.484316900000122
F46.035340600000076
tp1251
aa(lp1252
I603044
aI685
aS'Koprska'
p1253
a(F14.483463900000123
F46.03521990000008
tp1254
aa(lp1255
I603061
aI241
aS'Murgle \xe2\x86\x92'
p1256
a(F14.499805200000013
F46.03855149999998
tp1257
aa(lp1258
I603062
aI240
aS'Murgle'
p1259
a(F14.499716300000014
F46.03770679999998
tp1260
aa(lp1261
I603071
aI239
aS'Pot na Rakovo jel\xc5\xa1o \xe2\x86\x92'
p1262
a(F14.501358200000015
F46.03282949999998
tp1263
aa(lp1264
I603072
aI238
aS'Pot na Rakovo jel\xc5\xa1o'
p1265
a(F14.501922000000013
F46.03322419999998
tp1266
aa(lp1267
I603081
aI237
aS'Veliki \xc5\xa1tradon \xe2\x86\x92'
p1268
a(F14.505005600000013
F46.03768439999998
tp1269
aa(lp1270
I603082
aI236
aS'Veliki \xc5\xa1tradon'
p1271
a(F14.505429900000014
F46.037933399999986
tp1272
aa(lp1273
I603091
aI413
aS'Livada \xe2\x86\x92'
p1274
a(F14.510983899999976
F46.03426229999982
tp1275
aa(lp1276
I603092
aI412
aS'Livada'
p1277
a(F14.512542199999976
F46.033206499999814
tp1278
aa(lp1279
I603093
aI506
aS'Galjevica \xe2\x86\x92'
p1280
a(F14.513384499999976
F46.033159799999815
tp1281
aa(lp1282
I603094
aI507
aS'Galjevica'
p1283
a(F14.513084099999976
F46.033185899999815
tp1284
aa(lp1285
I603101
aI415
aS'Ilovica \xe2\x86\x92'
p1286
a(F14.511680699999966
F46.02732249999987
tp1287
aa(lp1288
I603102
aI414
aS'Ilovica'
p1289
a(F14.511621699999965
F46.027752699999866
tp1290
aa(lp1291
I603111
aI417
aS'Lahova pot \xe2\x86\x92'
p1292
a(F14.511195999999964
F46.02452439999987
tp1293
aa(lp1294
I603112
aI416
aS'Lahova pot'
p1295
a(F14.511088699999965
F46.02466219999987
tp1296
aa(lp1297
I603121
aI504
aS'I\xc5\xbeanska \xe2\x86\x92'
p1298
a(F14.513137599999975
F46.03606099999981
tp1299
aa(lp1300
I603122
aI505
aS'I\xc5\xbeanska'
p1301
a(F14.512949999999975
F46.03564949999981
tp1302
aa(lp1303
I604011
aI419
aS'I\xc5\xa1ki most \xe2\x86\x92'
p1304
a(F14.510495199999966
F46.020049699999866
tp1305
aa(lp1306
I604012
aI418
aS'I\xc5\xa1ki most'
p1307
a(F14.510366399999965
F46.01997339999987
tp1308
aa(lp1309
I604031
aI485
aS'Avtosejem \xe2\x86\x92'
p1310
a(F14.471024500000123
F46.03147270000007
tp1311
aa(lp1312
I604051
aI683
aS'Tbilisijska \xe2\x86\x92'
p1313
a(F14.514633799999965
F46.006933999999866
tp1314
aa(lp1315
I604052
aI684
aS'Tbilisijska'
p1316
a(F14.514326199999966
F46.00752929999987
tp1317
aa(lp1318
I614011
aI555
aS'Ple\xc4\x8dnikova cerkev \xe2\x86\x92'
p1319
a(F14.505931499999978
F46.011818599999955
tp1320
aa(lp1321
I614012
aI554
aS'Ple\xc4\x8dnikova cerkev'
p1322
a(F14.506089599999978
F46.011997399999956
tp1323
aa(lp1324
I614021
aI557
aS'Brglezov \xc5\xa1tradon \xe2\x86\x92'
p1325
a(F14.50111279999998
F46.00987129999996
tp1326
aa(lp1327
I614022
aI556
aS'Brglezov \xc5\xa1tradon'
p1328
a(F14.50079019999998
F46.009847899999954
tp1329
aa(lp1330
I614031
aI559
aS'Dornig \xe2\x86\x92'
p1331
a(F14.496333099999978
F46.007904599999954
tp1332
aa(lp1333
I614032
aI558
aS'Dornig'
p1334
a(F14.49591199999998
F46.007850599999955
tp1335
aa(lp1336
I614041
aI561
aS'Capuder \xe2\x86\x92'
p1337
a(F14.490008299999978
F46.005527299999954
tp1338
aa(lp1339
I614042
aI560
aS'Capuder'
p1340
a(F14.490654699999977
F46.00586829999995
tp1341
aa(lp1342
I614051
aI563
aS'Zidarjevec \xe2\x86\x92'
p1343
a(F14.481847199999978
F46.002479299999955
tp1344
aa(lp1345
I614052
aI562
aS'Zidarjevec'
p1346
a(F14.481576299999977
F46.002479399999956
tp1347
aa(lp1348
I614061
aI565
aS'Rutar \xe2\x86\x92'
p1349
a(F14.47677829999998
F46.000359099999955
tp1350
aa(lp1351
I614062
aI564
aS'Rutar'
p1352
a(F14.476128699999979
F46.00018489999996
tp1353
aa(lp1354
I614071
aI567
aS'Lipe \xe2\x86\x92'
p1355
a(F14.470168199999978
F45.997288499999954
tp1356
aa(lp1357
I614072
aI566
aS'Lipe'
p1358
a(F14.47102929999998
F45.99788099999996
tp1359
aa(lp1360
I614081
aI569
aS'Kozler \xe2\x86\x92'
p1361
a(F14.465319399999979
F45.99500699999995
tp1362
aa(lp1363
I614082
aI568
aS'Kozler'
p1364
a(F14.46500479999998
F45.99497219999996
tp1365
aa(lp1366
I614091
aI571
aS'Snoj \xe2\x86\x92'
p1367
a(F14.456620999999979
F45.99086269999995
tp1368
aa(lp1369
I614092
aI570
aS'Snoj'
p1370
a(F14.45652439999998
F45.99093339999995
tp1371
aa(lp1372
I700011
aI24
aS'Kolizej \xe2\x86\x92'
p1373
a(F14.502167100000127
F46.05575150000003
tp1374
aa(lp1375
I700012
aI25
aS'Hotel Lev'
p1376
a(F14.501956800000128
F46.05622100000002
tp1377
aa(lp1378
I701011
aI519
aS'Tivolska'
p1379
a(F14.498020600000128
F46.05297110000009
tp1380
aa(lp1381
I701012
aI518
aS'Tivolska \xe2\x86\x92'
p1382
a(F14.497845400000129
F46.05302210000009
tp1383
aa(lp1384
I702011
aI345
aS'Pod Ro\xc5\xbenikom \xe2\x86\x92'
p1385
a(F14.492286399999978
F46.05121109999995
tp1386
aa(lp1387
I702012
aI344
aS'Pod Ro\xc5\xbenikom'
p1388
a(F14.49182229999998
F46.05112729999996
tp1389
aa(lp1390
I702021
aI343
aS'\xc5\xa0tudentsko naselje \xe2\x86\x92'
p1391
a(F14.488245699999979
F46.049535599999956
tp1392
aa(lp1393
I702022
aI342
aS'\xc5\xa0tudentsko naselje'
p1394
a(F14.48750529999998
F46.04939779999996
tp1395
aa(lp1396
I703011
aI341
aS'Ro\xc5\xbena dolina \xe2\x86\x92'
p1397
a(F14.48209489999998
F46.047828999999965
tp1398
aa(lp1399
I703012
aI340
aS'Ro\xc5\xbena dolina'
p1400
a(F14.48196609999998
F46.047881199999956
tp1401
aa(lp1402
I703021
aI339
aS'Cesta XV \xe2\x86\x92'
p1403
a(F14.48081549999998
F46.04597179999997
tp1404
aa(lp1405
I703022
aI338
aS'Cesta XV'
p1406
a(F14.480878899999981
F46.04562629999996
tp1407
aa(lp1408
I703031
aI337
aS'Jamnikarjeva \xe2\x86\x92'
p1409
a(F14.47531159999998
F46.04487649999996
tp1410
aa(lp1411
I703032
aI336
aS'Jamnikarjeva'
p1412
a(F14.47390609999998
F46.04521339999996
tp1413
aa(lp1414
I703041
aI335
aS'Vi\xc5\xa1ko polje \xe2\x86\x92'
p1415
a(F14.46954389999998
F46.04600669999996
tp1416
aa(lp1417
I703042
aI334
aS'Vi\xc5\xa1ko polje'
p1418
a(F14.46890899999998
F46.04638059999996
tp1419
aa(lp1420
I703051
aI333
aS'Podmornica \xe2\x86\x92'
p1421
a(F14.46456929999998
F46.04728549999996
tp1422
aa(lp1423
I703052
aI332
aS'Podmornica'
p1424
a(F14.46436279999998
F46.04736919999996
tp1425
aa(lp1426
I703061
aI331
aS'Preval \xe2\x86\x92'
p1427
a(F14.46071139999998
F46.04718699999996
tp1428
aa(lp1429
I703062
aI330
aS'Preval'
p1430
a(F14.45892579999998
F46.047432399999956
tp1431
aa(lp1432
I703071
aI175
aS'Stan in dom \xe2\x86\x92'
p1433
a(F14.485977000000146
F46.04441770000009
tp1434
aa(lp1435
I703072
aI174
aS'Stan in dom'
p1436
a(F14.486328200000147
F46.04473050000009
tp1437
aa(lp1438
I703081
aI177
aS'Glince \xe2\x86\x92'
p1439
a(F14.482595500000146
F46.04348030000009
tp1440
aa(lp1441
I703082
aI176
aS'Glince'
p1442
a(F14.481978300000145
F46.043476200000086
tp1443
aa(lp1444
I703091
aI179
aS'Vi\xc4\x8d \xe2\x86\x92'
p1445
a(F14.477689700000147
F46.04203380000009
tp1446
aa(lp1447
I703092
aI178
aS'Vi\xc4\x8d'
p1448
a(F14.477869700000147
F46.04228180000009
tp1449
aa(lp1450
I703101
aI181
aS'Bonifacija \xe2\x86\x92'
p1451
a(F14.472583000000146
F46.03963800000009
tp1452
aa(lp1453
I703102
aI180
aS'Bonifacija'
p1454
a(F14.473065200000146
F46.04009760000009
tp1455
aa(lp1456
I703111
aI475
aS'Dolgi most \xe2\x86\x92'
p1457
a(F14.467199600000146
F46.03730270000009
tp1458
aa(lp1459
I703112
aI474
aS'Dolgi most'
p1460
a(F14.465155900000147
F46.03673760000009
tp1461
aa(lp1462
I703121
aI515
aS'\xc5\xbdivalski vrt \xe2\x86\x92'
p1463
a(F14.472291000000137
F46.05206900000018
tp1464
aa(lp1465
I703122
aI516
aS'\xc5\xbdivalski vrt'
p1466
a(F14.472033900000136
F46.052472400000184
tp1467
aa(lp1468
I703131
aI491
aS'\xc5\xbdivalski vrt \xe2\x86\x92'
p1469
a(F14.470170700000137
F46.05326180000018
tp1470
aa(lp1471
I704011
aI182
aS'Dolgi most \xe2\x80\x90 obra\xc4\x8dali\xc5\xa1\xc4\x8de \xe2\x86\x92'
p1472
a(F14.462630400000148
F46.03660160000009
tp1473
aa(lp1474
I704012
aI524
aS'Dolgi most \xe2\x80\x90 obra\xc4\x8dali\xc5\xa1\xc4\x8de izstop'
p1475
a(F14.463676500000146
F46.03640090000009
tp1476
aa(lp1477
I704021
aI329
aS'Brdo \xe2\x86\x92'
p1478
a(F14.45396909999998
F46.04765409999997
tp1479
aa(lp1480
I704022
aI328
aS'Brdo'
p1481
a(F14.45364199999998
F46.04745669999996
tp1482
aa(lp1483
I704024
aI502
aS'Brdo'
p1484
a(F14.45401999999998
F46.04773599999996
tp1485
aa(lp1486
I704031
aI327
aS'Vrhovci \xe2\x86\x92'
p1487
a(F14.455573199999982
F46.04410199999998
tp1488
aa(lp1489
I704041
aI501
aS'Bokalce \xe2\x86\x92'
p1490
a(F14.44809419999998
F46.05194709999997
tp1491
aa(lp1492
I704051
aI527
aS'Dolgi most Rotar \xe2\x86\x92'
p1493
a(F14.453697600000005
F46.03401629999995
tp1494
aa(lp1495
I704052
aI526
aS'Dolgi most Rotar'
p1496
a(F14.452077600000006
F46.03362709999995
tp1497
aa(lp1498
I704061
aI530
aS'Na Gmajnici \xe2\x86\x92'
p1499
a(F14.439020500000005
F46.02918759999995
tp1500
aa(lp1501
I704062
aI529
aS'Na Gmajnici'
p1502
a(F14.439822400000006
F46.029574999999944
tp1503
aa(lp1504
I704072
aI540
aS'Radna'
p1505
a(F14.42123890000003
F46.02441820000026
tp1506
aa(lp1507
I704081
aI525
aS'Pri Poku \xe2\x86\x92'
p1508
a(F14.417855600000031
F46.02403080000026
tp1509
aa(lp1510
I704101
aI576
aS'Kozarje \xe2\x86\x92'
p1511
a(F14.445814600000006
F46.03149869999995
tp1512
aa(lp1513
I704102
aI575
aS'Kozarje'
p1514
a(F14.447181000000006
F46.03204599999995
tp1515
aa(lp1516
I744011
aI542
aS'\xc5\xa0olska \xe2\x86\x92'
p1517
a(F14.415024200000033
F46.017882700000285
tp1518
aa(lp1519
I744012
aI543
aS'\xc5\xa0olska'
p1520
a(F14.414462000000034
F46.01669250000028
tp1521
aa(lp1522
I744021
aI528
aS'Obra\xc4\x8dali\xc5\xa1\xc4\x8de Vnanje Gorice \xe2\x86\x92'
p1523
a(F14.412881100000034
F46.01178970000028
tp1524
aa(lp1525
I745051
aI573
aS'Podpe\xc4\x8d \xe2\x86\x92'
p1526
a(F14.420925200000035
F45.9734413000003
tp1527
aa(lp1528
I745052
aI572
aS'Podpe\xc4\x8d'
p1529
a(F14.420423500000036
F45.9741647000003
tp1530
aa(lp1531
I745061
aI574
aS'Jezero \xe2\x86\x92'
p1532
a(F14.434684800000037
F45.9708055000003
tp1533
aa(lp1534
I801011
aI22
aS'Tivoli \xe2\x86\x92'
p1535
a(F14.497152600000128
F46.060437800000024
tp1536
aa(lp1537
I801012
aI23
aS'Tivoli'
p1538
a(F14.497756100000128
F46.060262800000025
tp1539
aa(lp1540
I802011
aI20
aS'Stara cerkev \xe2\x86\x92'
p1541
a(F14.494446200000127
F46.063903200000034
tp1542
aa(lp1543
I802012
aI21
aS'Stara cerkev'
p1544
a(F14.494196800000127
F46.06500860000003
tp1545
aa(lp1546
I802021
aI18
aS'Kino \xc5\xa0i\xc5\xa1ka \xe2\x86\x92'
p1547
a(F14.489405600000127
F46.06966520000003
tp1548
aa(lp1549
I802022
aI19
aS'Kino \xc5\xa0i\xc5\xa1ka'
p1550
a(F14.490246300000127
F46.069174300000036
tp1551
aa(lp1552
I802031
aI196
aS'Na jami \xe2\x86\x92'
p1553
a(F14.489885900000147
F46.06665250000008
tp1554
aa(lp1555
I802032
aI197
aS'Na jami'
p1556
a(F14.489597100000147
F46.06662640000008
tp1557
aa(lp1558
I802041
aI194
aS'Bolnica P. Dr\xc5\xbeaja \xe2\x86\x92'
p1559
a(F14.486311400000147
F46.06717530000008
tp1560
aa(lp1561
I802042
aI195
aS'Bolnica P. Dr\xc5\xbeaja'
p1562
a(F14.485729300000147
F46.06767040000008
tp1563
aa(lp1564
I802051
aI404
aS'Drenikova'
p1565
a(F14.495994100000148
F46.06705810000008
tp1566
aa(lp1567
I802052
aI459
aS'Drenikova \xe2\x86\x92'
p1568
a(F14.495827000000148
F46.06691860000008
tp1569
aa(lp1570
I802061
aI402
aS'Tiki \xe2\x86\x92'
p1571
a(F14.495097100000136
F46.07290920000018
tp1572
aa(lp1573
I802062
aI403
aS'Tiki'
p1574
a(F14.495760300000136
F46.07280380000018
tp1575
aa(lp1576
I803011
aI16
aS'Slovenija avto \xe2\x86\x92'
p1577
a(F14.486275200000128
F46.07305430000004
tp1578
aa(lp1579
I803012
aI93
aS'Slovenija avto'
p1580
a(F14.486484600000127
F46.07392840000003
tp1581
aa(lp1582
I803014
aI17
aS'Remiza'
p1583
a(F14.485256300000128
F46.07437850000002
tp1584
aa(lp1585
I803016
aI126
aS'\xc5\xa0i\xc5\xa1enska'
p1586
a(F14.485168100000127
F46.073745700000025
tp1587
aa(lp1588
I803021
aI14
aS'Avtomonta\xc5\xbea \xe2\x86\x92'
p1589
a(F14.482319300000126
F46.07690360000004
tp1590
aa(lp1591
I803022
aI15
aS'Avtomonta\xc5\xbea'
p1592
a(F14.482329700000127
F46.07734500000004
tp1593
aa(lp1594
I803031
aI12
aS'Kompas \xe2\x86\x92'
p1595
a(F14.480171800000129
F46.079990600000045
tp1596
aa(lp1597
I803032
aI13
aS'Kompas'
p1598
a(F14.480355900000127
F46.080235000000044
tp1599
aa(lp1600
I803041
aI10
aS'Dravlje \xe2\x86\x92'
p1601
a(F14.477313700000126
F46.08400690000004
tp1602
aa(lp1603
I803042
aI11
aS'Dravlje'
p1604
a(F14.477910500000126
F46.08367280000004
tp1605
aa(lp1606
I803051
aI232
aS'Litostrojska \xe2\x86\x92'
p1607
a(F14.48868690000013
F46.07684590000008
tp1608
aa(lp1609
I803052
aI233
aS'Litostrojska'
p1610
a(F14.488990100000132
F46.07688500000009
tp1611
aa(lp1612
I803061
aI230
aS'Ljubljanske brigade \xe2\x86\x92'
p1613
a(F14.48684890000013
F46.0798720000001
tp1614
aa(lp1615
I803062
aI231
aS'Ljubljanske brigade'
p1616
a(F14.48525920000013
F46.0815829000001
tp1617
aa(lp1618
I803071
aI228
aS'Tehnounion \xe2\x86\x92'
p1619
a(F14.48062630000013
F46.0859315000001
tp1620
aa(lp1621
I803072
aI229
aS'Tehnounion'
p1622
a(F14.47992430000013
F46.0867549000001
tp1623
aa(lp1624
I803081
aI125
aS'Kneza Koclja \xe2\x86\x92'
p1625
a(F14.480670600000147
F46.07130650000009
tp1626
aa(lp1627
I803082
aI124
aS'Kneza Koclja'
p1628
a(F14.480646500000148
F46.07146660000009
tp1629
aa(lp1630
I803101
aI190
aS'Tr\xc5\xbenica Koseze \xe2\x86\x92'
p1631
a(F14.480313900000146
F46.07007090000008
tp1632
aa(lp1633
I803102
aI191
aS'Tr\xc5\xbenica Koseze'
p1634
a(F14.478293200000145
F46.071178100000104
tp1635
aa(lp1636
I803111
aI188
aS'\xc4\x8cebelarska \xe2\x86\x92'
p1637
a(F14.47122300000013
F46.079108600000104
tp1638
aa(lp1639
I803112
aI189
aS'\xc4\x8cebelarska'
p1640
a(F14.471281500000131
F46.0792531000001
tp1641
aa(lp1642
I803121
aI186
aS'Ple\xc5\xa1i\xc4\x8deva \xe2\x86\x92'
p1643
a(F14.46941860000013
F46.0816645000001
tp1644
aa(lp1645
I803122
aI187
aS'Ple\xc5\xa1i\xc4\x8deva'
p1646
a(F14.468994100000131
F46.082468600000105
tp1647
aa(lp1648
I803131
aI123
aS'Bratov U\xc4\x8dakar \xe2\x86\x92'
p1649
a(F14.472921600000147
F46.069789900000096
tp1650
aa(lp1651
I803132
aI122
aS'Bratov U\xc4\x8dakar'
p1652
a(F14.473157700000147
F46.069778800000094
tp1653
aa(lp1654
I803141
aI121
aS'Koseze \xe2\x86\x92'
p1655
a(F14.467254100000147
F46.072220100000095
tp1656
aa(lp1657
I803142
aI120
aS'Koseze'
p1658
a(F14.467442000000146
F46.07224440000009
tp1659
aa(lp1660
I803151
aI119
aS'Draveljska gmajna \xe2\x86\x92'
p1661
a(F14.461242400000147
F46.07387030000009
tp1662
aa(lp1663
I803152
aI118
aS'Draveljska gmajna'
p1664
a(F14.461293400000146
F46.07395450000009
tp1665
aa(lp1666
I803161
aI457
aS'Bratov Babnik \xe2\x86\x92'
p1667
a(F14.462857100000145
F46.0746002000001
tp1668
aa(lp1669
I803162
aI458
aS'Bratov Babnik'
p1670
a(F14.463221900000145
F46.0746746000001
tp1671
aa(lp1672
I803171
aI455
aS'Spar \xe2\x86\x92'
p1673
a(F14.467230100000146
F46.07694820000008
tp1674
aa(lp1675
I803172
aI456
aS'Spar'
p1676
a(F14.467584000000146
F46.07703580000008
tp1677
aa(lp1678
I803181
aI454
aS'Kamna Gorica \xe2\x86\x92'
p1679
a(F14.465280100000147
F46.07959960000008
tp1680
aa(lp1681
I804011
aI8
aS'Trata \xe2\x86\x92'
p1682
a(F14.47406410000013
F46.087238300000045
tp1683
aa(lp1684
I804012
aI9
aS'Trata'
p1685
a(F14.474650200000129
F46.086948900000046
tp1686
aa(lp1687
I804021
aI6
aS'Pru\xc5\xa1nikova \xe2\x86\x92'
p1688
a(F14.471722600000128
F46.08989370000005
tp1689
aa(lp1690
I804022
aI7
aS'Pru\xc5\xa1nikova'
p1691
a(F14.471103000000129
F46.09097260000004
tp1692
aa(lp1693
I804031
aI4
aS'Podgora \xe2\x86\x92'
p1694
a(F14.469292500000128
F46.09262800000005
tp1695
aa(lp1696
I804032
aI5
aS'Podgora'
p1697
a(F14.468675500000126
F46.093717200000036
tp1698
aa(lp1699
I804041
aI2
aS'\xc5\xa0entvid \xe2\x86\x92'
p1700
a(F14.466647900000128
F46.095345700000045
tp1701
aa(lp1702
I804042
aI3
aS'\xc5\xa0entvid'
p1703
a(F14.464976800000128
F46.09684480000004
tp1704
aa(lp1705
I804051
aI1
aS'Vi\xc5\xbemarje \xe2\x86\x92'
p1706
a(F14.459122900000127
F46.100214000000044
tp1707
aa(lp1708
I804061
aI372
aS'Stane\xc5\xbei\xc4\x8de \xe2\x86\x92'
p1709
a(F14.445873700000135
F46.110521000000176
tp1710
aa(lp1711
I804062
aI373
aS'Stane\xc5\xbei\xc4\x8de'
p1712
a(F14.442242100000135
F46.11623120000017
tp1713
aa(lp1714
I804071
aI374
aS'Medno \xe2\x86\x92'
p1715
a(F14.437116200000137
F46.12429010000018
tp1716
aa(lp1717
I804072
aI375
aS'Medno'
p1718
a(F14.436692500000136
F46.12492650000018
tp1719
aa(lp1720
I804081
aI224
aS'Kosma\xc4\x8deva \xe2\x86\x92'
p1721
a(F14.460454700000128
F46.100715200000046
tp1722
aa(lp1723
I804082
aI225
aS'Kosma\xc4\x8deva'
p1724
a(F14.460981600000126
F46.101045300000045
tp1725
aa(lp1726
I804091
aI222
aS'Na klancu \xe2\x86\x92'
p1727
a(F14.462809700000127
F46.10428410000006
tp1728
aa(lp1729
I804092
aI223
aS'Na klancu'
p1730
a(F14.462703700000127
F46.10381170000006
tp1731
aa(lp1732
I804101
aI220
aS'Tabor \xe2\x86\x92'
p1733
a(F14.461763500000126
F46.108563100000055
tp1734
aa(lp1735
I804102
aI221
aS'Tabor'
p1736
a(F14.461819800000127
F46.10924190000006
tp1737
aa(lp1738
I804111
aI218
aS'Ob daljnovodu'
p1739
a(F14.461751500000128
F46.11312530000006
tp1740
aa(lp1741
I804112
aI219
aS'Ob daljnovodu'
p1742
a(F14.461873600000128
F46.11251820000005
tp1743
aa(lp1744
I804121
aI216
aS'Brod \xe2\x86\x92'
p1745
a(F14.462729200000128
F46.11558060000006
tp1746
aa(lp1747
I804131
aI217
aS'Martinova \xe2\x86\x92'
p1748
a(F14.464381500000126
F46.113527000000055
tp1749
aa(lp1750
I804141
aI383
aS'Tacenski most \xe2\x86\x92'
p1751
a(F14.461667100000128
F46.117815500000056
tp1752
aa(lp1753
I804142
aI384
aS'Tacenski most'
p1754
a(F14.461919100000127
F46.118205900000056
tp1755
aa(lp1756
I804151
aI385
aS'Tacen \xe2\x86\x92'
p1757
a(F14.466610300000127
F46.12026030000006
tp1758
aa(lp1759
I804152
aI386
aS'Tacen'
p1760
a(F14.466815500000127
F46.120183200000056
tp1761
aa(lp1762
I804161
aI226
aS'IMP \xe2\x86\x92'
p1763
a(F14.477644400000129
F46.0887899000001
tp1764
aa(lp1765
I804162
aI227
aS'IMP'
p1766
a(F14.47722600000013
F46.0893443000001
tp1767
aa(lp1768
I804171
aI184
aS'Andreja Bitenca \xe2\x86\x92'
p1769
a(F14.464919900000131
F46.0858173000001
tp1770
aa(lp1771
I804172
aI185
aS'Andreja Bitenca'
p1772
a(F14.464967500000132
F46.0863351000001
tp1773
aa(lp1774
I804181
aI183
aS'Pr\xc5\xbean \xe2\x86\x92'
p1775
a(F14.459098800000131
F46.0884111000001
tp1776
aa(lp1777
I804191
aI489
aS'Pod Kamno Gorico \xe2\x86\x92'
p1778
a(F14.456111400000147
F46.0737459000001
tp1779
aa(lp1780
I804201
aI117
aS'Omersova \xe2\x86\x92'
p1781
a(F14.453992400000146
F46.07419820000009
tp1782
aa(lp1783
I804202
aI116
aS'Omersova'
p1784
a(F14.453002700000146
F46.074170400000085
tp1785
aa(lp1786
I804211
aI115
aS'Murkova \xe2\x86\x92'
p1787
a(F14.449645500000146
F46.07379630000009
tp1788
aa(lp1789
I804212
aI114
aS'Murkova'
p1790
a(F14.448510900000146
F46.074283800000096
tp1791
aa(lp1792
I804221
aI113
aS'Podutik \xe2\x86\x92'
p1793
a(F14.443833000000145
F46.074618800000096
tp1794
aa(lp1795
I805011
aI376
aS'Medvo\xc5\xa1ka a.p. \xe2\x86\x92'
p1796
a(F14.41337859999997
F46.1384431
tp1797
aa(lp1798
I805012
aI377
aS'Medvo\xc5\xa1ka a.p.'
p1799
a(F14.41506029999997
F46.13799420000001
tp1800
aa(lp1801
I805021
aI378
aS'Ob igri\xc5\xa1\xc4\x8du \xe2\x86\x92'
p1802
a(F14.41085139999997
F46.141256500000004
tp1803
aa(lp1804
I805031
aI380
aS'Novo naselje \xe2\x86\x92'
p1805
a(F14.40923129999997
F46.14188730000001
tp1806
aa(lp1807
I805032
aI381
aS'Novo naselje'
p1808
a(F14.40897429999997
F46.14201690000001
tp1809
aa.